; Function Attrs: mustprogress uwtable
define noundef ptr @_ZN6icu_758TimeUnit14createInstanceENS0_15UTimeUnitFieldsER10UErrorCode(i32 noundef %timeUnitField, ptr nocapture noundef nonnull align 4 dereferenceable(4) %status) local_unnamed_addr #1 align 2 personality ptr @__gxx_personality_v0 {
entry:
  %0 = load i32, ptr %status, align 4
  %cmp.i = icmp slt i32 %0, 1
  br i1 %cmp.i, label %if.end, label %return

if.end:                                           ; preds = %entry
  %or.cond = icmp ugt i32 %timeUnitField, 6
  br i1 %or.cond, label %if.then2, label %if.end3

if.then2:                                         ; preds = %if.end
  store i32 1, ptr %status, align 4
  br label %return

if.end3:                                          ; preds = %if.end
  %call4 = tail call noundef ptr @_ZN6icu_757UMemorynwEm(i64 noundef 24) #7
  %new.isnull = icmp eq ptr %call4, null
  br i1 %new.isnull, label %return, label %new.notnull

new.notnull:                                      ; preds = %if.end3
  invoke void @_ZN6icu_758TimeUnitC1ENS0_15UTimeUnitFieldsE(ptr noundef nonnull align 8 dereferenceable(24) %call4, i32 noundef %timeUnitField)
          to label %return unwind label %lpad

lpad:                                             ; preds = %new.notnull
  %1 = landingpad { ptr, i32 }
          cleanup
  tail call void @_ZN6icu_757UMemorydlEPv(ptr noundef nonnull %call4) #7
  resume { ptr, i32 } %1

return:                                           ; preds = %if.end3, %new.notnull, %entry, %if.then2
  %retval.0 = phi ptr [ null, %if.then2 ], [ null, %entry ], [ null, %if.end3 ], [ %call4, %new.notnull ]
  ret ptr %retval.0
}